target datalayout = "e-m:e-p270:32:32-p271:32:32-p272:64:64-i64:64-i128:128-f80:128-n8:16:32:64-S128"
target triple = "x86_64-pc-linux-gnu"

%struct.HelperCommand = type { i32, i8, i8, i8, ptr, %union.anon }
%union.anon = type { %struct.ReportEventCompositeCommand }
%struct.ReportEventCompositeCommand = type { i8, i32, [1 x %struct.CommandSingle] }
%struct.CommandSingle = type { i32, %union.anon.0 }
%union.anon.0 = type { %struct.EventCommandSingle }
%struct.EventCommandSingle = type { i8, i32, %struct.EventInfo }
%struct.EventInfo = type { i32, ptr, i8, ptr, ptr, i64, ptr, %union.anon.1 }
%union.anon.1 = type { %struct.anon.2 }
%struct.anon.2 = type { ptr, ptr, i8, %union.jvalue }
%union.jvalue = type { i64 }
%struct.ReportInvokeDoneCommand = type { ptr }

@.str.7 = private unnamed_addr constant [54 x i8] c"src/jdk.jdwp.agent/share/native/libjdwp/eventHelper.c\00", align 1
@stderr = external global ptr, align 8
@.str.12 = private unnamed_addr constant [17 x i8] c"JDWP exit error \00", align 1
@.str.13 = private unnamed_addr constant [2 x i8] c"\0A\00", align 1
@.str.14 = private unnamed_addr constant [19 x i8] c"%s(%d): %s [%s:%d]\00", align 1
@.str.17 = private unnamed_addr constant [14 x i8] c"HelperCommand\00", align 1

; Function Attrs: nounwind uwtable
define hidden void @eventHelper_reportInvokeDone(i8 noundef signext %0, ptr noundef %1) #0 {
  %3 = alloca i8, align 1
  %4 = alloca ptr, align 8
  %5 = alloca ptr, align 8
  %6 = alloca ptr, align 8
  store i8 %0, ptr %3, align 1
  store ptr %1, ptr %4, align 8
  %7 = call ptr @getEnv()
  store ptr %7, ptr %5, align 8
  %8 = call ptr @jvmtiAllocate(i32 noundef 128)
  store ptr %8, ptr %6, align 8
  %9 = load ptr, ptr %6, align 8
  %10 = icmp eq ptr %9, null
  br i1 %10, label %11, label %14

11:                                               ; preds = %2
  %12 = load ptr, ptr @stderr, align 8
  %13 = call ptr @jvmtiErrorText(i32 noundef 188)
  call void (ptr, ptr, ptr, ptr, ...) @print_message(ptr noundef %12, ptr noundef @.str.12, ptr noundef @.str.13, ptr noundef @.str.14, ptr noundef %13, i32 noundef 188, ptr noundef @.str.17, ptr noundef @.str.7, i32 noundef 1142)
  call void @debugInit_exit(i32 noundef 188, ptr noundef @.str.17)
  br label %14

14:                                               ; preds = %11, %2
  %15 = load ptr, ptr %6, align 8
  call void @llvm.memset.p0.i64(ptr align 8 %15, i8 0, i64 128, i1 false)
  %16 = load ptr, ptr %6, align 8
  %17 = getelementptr inbounds %struct.HelperCommand, ptr %16, i32 0, i32 0
  store i32 2, ptr %17, align 8
  %18 = load i8, ptr %3, align 1
  %19 = load ptr, ptr %6, align 8
  %20 = getelementptr inbounds %struct.HelperCommand, ptr %19, i32 0, i32 3
  store i8 %18, ptr %20, align 2
  %21 = load ptr, ptr %5, align 8
  %22 = load ptr, ptr %4, align 8
  %23 = load ptr, ptr %6, align 8
  %24 = getelementptr inbounds %struct.HelperCommand, ptr %23, i32 0, i32 5
  %25 = getelementptr inbounds %struct.ReportInvokeDoneCommand, ptr %24, i32 0, i32 0
  call void @saveGlobalRef(ptr noundef %21, ptr noundef %22, ptr noundef %25)
  %26 = load ptr, ptr %6, align 8
  call void @enqueueCommand(ptr noundef %26, i8 noundef zeroext 1, i8 noundef zeroext 0)
  ret void
}