; Function Attrs: nounwind uwtable
define hidden void @eventHelper_reportInvokeDone(i8 noundef signext %0, ptr noundef %1) local_unnamed_addr #0 {
  %3 = tail call ptr @getEnv() #9
  %4 = tail call ptr @jvmtiAllocate(i32 noundef 128) #9
  %5 = icmp eq ptr %4, null
  br i1 %5, label %6, label %9

6:                                                ; preds = %2
  %7 = load ptr, ptr @stderr, align 8
  %8 = tail call ptr @jvmtiErrorText(i32 noundef 188) #9
  tail call void (ptr, ptr, ptr, ptr, ...) @print_message(ptr noundef %7, ptr noundef nonnull @.str.12, ptr noundef nonnull @.str.13, ptr noundef nonnull @.str.14, ptr noundef %8, i32 noundef 188, ptr noundef nonnull @.str.17, ptr noundef nonnull @.str.7, i32 noundef 1142) #9
  tail call void @debugInit_exit(i32 noundef 188, ptr noundef nonnull @.str.17) #9
  br label %9

9:                                                ; preds = %6, %2
  tail call void @llvm.memset.p0.i64(ptr noundef nonnull align 8 dereferenceable(128) %4, i8 0, i64 128, i1 false)
  store i32 2, ptr %4, align 8
  %10 = getelementptr inbounds i8, ptr %4, i64 6
  store i8 %0, ptr %10, align 2
  %11 = getelementptr inbounds i8, ptr %4, i64 16
  tail call void @saveGlobalRef(ptr noundef %3, ptr noundef %1, ptr noundef nonnull %11) #9
  tail call fastcc void @enqueueCommand(ptr noundef nonnull %4, i8 noundef zeroext 1, i8 noundef zeroext 0)
  ret void
}